target datalayout = "e-m:e-p270:32:32-p271:32:32-p272:64:64-i64:64-i128:128-f80:128-n8:16:32:64-S128"
target triple = "x86_64-pc-linux-gnu"

%"class.dap::Deserializer" = type { ptr }
%"struct.dap::json::JsonCppDeserializer" = type <{ %"class.dap::Deserializer", ptr, i8, [7 x i8] }>
%"class.Json::ValueConstIterator" = type { %"class.Json::ValueIteratorBase.base", [7 x i8] }
%"class.Json::ValueIteratorBase.base" = type <{ %"struct.std::_Rb_tree_iterator", i8 }>
%"struct.std::_Rb_tree_iterator" = type { ptr }
%"class.std::function" = type { %"class.std::_Function_base", ptr }
%"class.std::_Function_base" = type { %"union.std::_Any_data", ptr }
%"union.std::_Any_data" = type { %"union.std::_Nocopy_types" }
%"union.std::_Nocopy_types" = type { { i64, i64 } }

@_ZN3dap4json19JsonCppDeserializerC1EPKN4Json5ValueE = dso_local unnamed_addr alias void (ptr, ptr), ptr @_ZN3dap4json19JsonCppDeserializerC2EPKN4Json5ValueE
@_ZN3dap4json19JsonCppDeserializerD1Ev = dso_local unnamed_addr alias void (ptr), ptr @_ZN3dap4json19JsonCppDeserializerD2Ev

; Function Attrs: mustprogress nounwind uwtable
define linkonce_odr dso_local noundef zeroext i1 @_ZNKSt14_Function_base8_M_emptyEv(ptr noundef nonnull align 8 dereferenceable(24) %0) #1 comdat align 2 {
  %2 = alloca ptr, align 8
  store ptr %0, ptr %2, align 8
  %3 = load ptr, ptr %2, align 8
  %4 = getelementptr inbounds %"class.std::_Function_base", ptr %3, i32 0, i32 1
  %5 = load ptr, ptr %4, align 8
  %6 = icmp ne ptr %5, null
  %7 = xor i1 %6, true
  ret i1 %7
}

; Function Attrs: mustprogress uwtable
define linkonce_odr dso_local noundef nonnull align 8 dereferenceable(9) ptr @_ZN4Json18ValueConstIteratorppEv(ptr noundef nonnull align 8 dereferenceable(9) %0) #0 comdat align 2 {
  %2 = alloca ptr, align 8
  store ptr %0, ptr %2, align 8
  %3 = load ptr, ptr %2, align 8
  call void @_ZN4Json17ValueIteratorBase9incrementEv(ptr noundef nonnull align 8 dereferenceable(9) %3)
  ret ptr %3
}

; Function Attrs: mustprogress uwtable
define linkonce_odr dso_local noundef zeroext i1 @_ZNKSt8functionIFbPN3dap12DeserializerEEEclES2_(ptr noundef nonnull align 8 dereferenceable(32) %0, ptr noundef %1) #0 comdat align 2 {
  %3 = alloca ptr, align 8
  %4 = alloca ptr, align 8
  store ptr %0, ptr %3, align 8
  store ptr %1, ptr %4, align 8
  %5 = load ptr, ptr %3, align 8
  %6 = call noundef zeroext i1 @_ZNKSt14_Function_base8_M_emptyEv(ptr noundef nonnull align 8 dereferenceable(24) %5)
  br i1 %6, label %7, label %8

7:                                                ; preds = %2
  call void @_ZSt25__throw_bad_function_callv() #17
  unreachable

8:                                                ; preds = %2
  %9 = getelementptr inbounds %"class.std::function", ptr %5, i32 0, i32 1
  %10 = load ptr, ptr %9, align 8
  %11 = getelementptr inbounds %"class.std::_Function_base", ptr %5, i32 0, i32 0
  %12 = call noundef zeroext i1 %10(ptr noundef nonnull align 8 dereferenceable(16) %11, ptr noundef nonnull align 8 dereferenceable(8) %4)
  ret i1 %12
}

; Function Attrs: mustprogress uwtable
define linkonce_odr dso_local noundef nonnull align 8 dereferenceable(40) ptr @_ZNK4Json18ValueConstIteratordeEv(ptr noundef nonnull align 8 dereferenceable(9) %0) #0 comdat align 2 {
  %2 = alloca ptr, align 8
  store ptr %0, ptr %2, align 8
  %3 = load ptr, ptr %2, align 8
  %4 = call noundef nonnull align 8 dereferenceable(40) ptr @_ZNK4Json17ValueIteratorBase5derefEv(ptr noundef nonnull align 8 dereferenceable(9) %3)
  ret ptr %4
}

; Function Attrs: mustprogress uwtable
define linkonce_odr dso_local noundef zeroext i1 @_ZNK4Json17ValueIteratorBaseneERKS0_(ptr noundef nonnull align 8 dereferenceable(9) %0, ptr noundef nonnull align 8 dereferenceable(9) %1) #0 comdat align 2 {
  %3 = alloca ptr, align 8
  %4 = alloca ptr, align 8
  store ptr %0, ptr %3, align 8
  store ptr %1, ptr %4, align 8
  %5 = load ptr, ptr %3, align 8
  %6 = load ptr, ptr %4, align 8
  %7 = call noundef zeroext i1 @_ZNK4Json17ValueIteratorBase7isEqualERKS0_(ptr noundef nonnull align 8 dereferenceable(9) %5, ptr noundef nonnull align 8 dereferenceable(9) %6)
  %8 = xor i1 %7, true
  ret i1 %8
}

; Function Attrs: mustprogress uwtable
define dso_local noundef zeroext i1 @_ZNK3dap4json19JsonCppDeserializer5arrayERKSt8functionIFbPNS_12DeserializerEEE(ptr noundef nonnull align 8 dereferenceable(17) %0, ptr noundef nonnull align 8 dereferenceable(32) %1) unnamed_addr #0 align 2 personality ptr @__gxx_personality_v0 {
  %3 = alloca i1, align 1
  %4 = alloca ptr, align 8
  %5 = alloca ptr, align 8
  %6 = alloca ptr, align 8
  %7 = alloca %"class.Json::ValueConstIterator", align 8
  %8 = alloca %"class.Json::ValueConstIterator", align 8
  %9 = alloca ptr, align 8
  %10 = alloca %"struct.dap::json::JsonCppDeserializer", align 8
  %11 = alloca ptr, align 8
  %12 = alloca i32, align 4
  %13 = alloca i32, align 4
  store ptr %0, ptr %4, align 8
  store ptr %1, ptr %5, align 8
  %14 = load ptr, ptr %4, align 8
  %15 = getelementptr inbounds %"struct.dap::json::JsonCppDeserializer", ptr %14, i32 0, i32 1
  %16 = load ptr, ptr %15, align 8
  %17 = call noundef zeroext i1 @_ZNK4Json5Value7isArrayEv(ptr noundef nonnull align 8 dereferenceable(40) %16)
  br i1 %17, label %19, label %18

18:                                               ; preds = %2
  store i1 false, ptr %3, align 1
  br label %54

19:                                               ; preds = %2
  %20 = getelementptr inbounds %"struct.dap::json::JsonCppDeserializer", ptr %14, i32 0, i32 1
  %21 = load ptr, ptr %20, align 8
  store ptr %21, ptr %6, align 8
  %22 = load ptr, ptr %6, align 8
  %23 = call { ptr, i8 } @_ZNK4Json5Value5beginEv(ptr noundef nonnull align 8 dereferenceable(40) %22)
  %24 = getelementptr inbounds { ptr, i8 }, ptr %7, i32 0, i32 0
  %25 = extractvalue { ptr, i8 } %23, 0
  store ptr %25, ptr %24, align 8
  %26 = getelementptr inbounds { ptr, i8 }, ptr %7, i32 0, i32 1
  %27 = extractvalue { ptr, i8 } %23, 1
  store i8 %27, ptr %26, align 8
  %28 = load ptr, ptr %6, align 8
  %29 = call { ptr, i8 } @_ZNK4Json5Value3endEv(ptr noundef nonnull align 8 dereferenceable(40) %28)
  %30 = getelementptr inbounds { ptr, i8 }, ptr %8, i32 0, i32 0
  %31 = extractvalue { ptr, i8 } %29, 0
  store ptr %31, ptr %30, align 8
  %32 = getelementptr inbounds { ptr, i8 }, ptr %8, i32 0, i32 1
  %33 = extractvalue { ptr, i8 } %29, 1
  store i8 %33, ptr %32, align 8
  br label %34

34:                                               ; preds = %51, %19
  %35 = call noundef zeroext i1 @_ZNK4Json17ValueIteratorBaseneERKS0_(ptr noundef nonnull align 8 dereferenceable(9) %7, ptr noundef nonnull align 8 dereferenceable(9) %8)
  br i1 %35, label %36, label %53

36:                                               ; preds = %34
  %37 = call noundef nonnull align 8 dereferenceable(40) ptr @_ZNK4Json18ValueConstIteratordeEv(ptr noundef nonnull align 8 dereferenceable(9) %7)
  store ptr %37, ptr %9, align 8
  %38 = load ptr, ptr %9, align 8
  call void @_ZN3dap4json19JsonCppDeserializerC1EPKN4Json5ValueE(ptr noundef nonnull align 8 dereferenceable(17) %10, ptr noundef %38)
  %39 = load ptr, ptr %5, align 8
  %40 = invoke noundef zeroext i1 @_ZNKSt8functionIFbPN3dap12DeserializerEEEclES2_(ptr noundef nonnull align 8 dereferenceable(32) %39, ptr noundef %10)
          to label %41 unwind label %43

41:                                               ; preds = %36
  br i1 %40, label %47, label %42

42:                                               ; preds = %41
  store i1 false, ptr %3, align 1
  store i32 1, ptr %13, align 4
  br label %48

43:                                               ; preds = %36
  %44 = landingpad { ptr, i32 }
          cleanup
  %45 = extractvalue { ptr, i32 } %44, 0
  store ptr %45, ptr %11, align 8
  %46 = extractvalue { ptr, i32 } %44, 1
  store i32 %46, ptr %12, align 4
  call void @_ZN3dap4json19JsonCppDeserializerD1Ev(ptr noundef nonnull align 8 dereferenceable(17) %10) #13
  br label %56

47:                                               ; preds = %41
  store i32 0, ptr %13, align 4
  br label %48

48:                                               ; preds = %47, %42
  call void @_ZN3dap4json19JsonCppDeserializerD1Ev(ptr noundef nonnull align 8 dereferenceable(17) %10) #13
  %49 = load i32, ptr %13, align 4
  switch i32 %49, label %61 [
    i32 0, label %50
    i32 1, label %54
  ]

50:                                               ; preds = %48
  br label %51

51:                                               ; preds = %50
  %52 = call noundef nonnull align 8 dereferenceable(9) ptr @_ZN4Json18ValueConstIteratorppEv(ptr noundef nonnull align 8 dereferenceable(9) %7)
  br label %34

53:                                               ; preds = %34
  store i1 true, ptr %3, align 1
  br label %54

54:                                               ; preds = %53, %48, %18
  %55 = load i1, ptr %3, align 1
  ret i1 %55

56:                                               ; preds = %43
  %57 = load ptr, ptr %11, align 8
  %58 = load i32, ptr %12, align 4
  %59 = insertvalue { ptr, i32 } poison, ptr %57, 0
  %60 = insertvalue { ptr, i32 } %59, i32 %58, 1
  resume { ptr, i32 } %60

61:                                               ; preds = %48
  unreachable
}