; Function Attrs: mustprogress uwtable
define dso_local noundef zeroext i1 @_ZNK3dap4json19JsonCppDeserializer5arrayERKSt8functionIFbPNS_12DeserializerEEE(ptr nocapture noundef nonnull readonly align 8 dereferenceable(17) %0, ptr noundef nonnull align 8 dereferenceable(32) %1) unnamed_addr #0 align 2 personality ptr @__gxx_personality_v0 {
  %3 = alloca ptr, align 8
  %4 = alloca %"class.Json::ValueConstIterator", align 8
  %5 = alloca %"class.Json::ValueConstIterator", align 8
  %6 = alloca %"struct.dap::json::JsonCppDeserializer", align 8
  %7 = getelementptr inbounds i8, ptr %0, i64 8
  %8 = load ptr, ptr %7, align 8
  %9 = tail call noundef zeroext i1 @_ZNK4Json5Value7isArrayEv(ptr noundef nonnull align 8 dereferenceable(40) %8)
  br i1 %9, label %10, label %.loopexit

10:                                               ; preds = %2
  %11 = load ptr, ptr %7, align 8
  %12 = tail call { ptr, i8 } @_ZNK4Json5Value5beginEv(ptr noundef nonnull align 8 dereferenceable(40) %11)
  %13 = extractvalue { ptr, i8 } %12, 0
  store ptr %13, ptr %4, align 8
  %14 = getelementptr inbounds i8, ptr %4, i64 8
  %15 = extractvalue { ptr, i8 } %12, 1
  store i8 %15, ptr %14, align 8
  %16 = tail call { ptr, i8 } @_ZNK4Json5Value3endEv(ptr noundef nonnull align 8 dereferenceable(40) %11)
  %17 = extractvalue { ptr, i8 } %16, 0
  store ptr %17, ptr %5, align 8
  %18 = getelementptr inbounds i8, ptr %5, i64 8
  %19 = extractvalue { ptr, i8 } %16, 1
  store i8 %19, ptr %18, align 8
  %20 = call noundef zeroext i1 @_ZNK4Json17ValueIteratorBase7isEqualERKS0_(ptr noundef nonnull align 8 dereferenceable(9) %4, ptr noundef nonnull align 8 dereferenceable(9) %5)
  br i1 %20, label %.loopexit, label %.lr.ph

.lr.ph:                                           ; preds = %10
  %21 = getelementptr inbounds i8, ptr %6, i64 8
  %22 = getelementptr inbounds i8, ptr %6, i64 16
  %23 = getelementptr inbounds i8, ptr %1, i64 16
  %24 = getelementptr inbounds i8, ptr %1, i64 24
  br label %25

25:                                               ; preds = %.lr.ph, %40
  %26 = call noundef nonnull align 8 dereferenceable(40) ptr @_ZNK4Json17ValueIteratorBase5derefEv(ptr noundef nonnull align 8 dereferenceable(9) %4)
  store ptr getelementptr inbounds ({ [13 x ptr] }, ptr @_ZTVN3dap4json19JsonCppDeserializerE, i64 0, i32 0, i64 2), ptr %6, align 8
  store ptr %26, ptr %21, align 8
  store i8 0, ptr %22, align 8
  call void @llvm.lifetime.start.p0(i64 8, ptr nonnull %3)
  store ptr %6, ptr %3, align 8
  %27 = load ptr, ptr %23, align 8
  %.not.i.i = icmp eq ptr %27, null
  br i1 %.not.i.i, label %28, label %29

28:                                               ; preds = %25
  invoke void @_ZSt25__throw_bad_function_callv() #23
          to label %.noexc unwind label %.loopexit.split-lp

.noexc:                                           ; preds = %28
  unreachable

29:                                               ; preds = %25
  %30 = load ptr, ptr %24, align 8
  %31 = invoke noundef zeroext i1 %30(ptr noundef nonnull align 8 dereferenceable(16) %1, ptr noundef nonnull align 8 dereferenceable(8) %3)
          to label %33 unwind label %.loopexit10

.loopexit10:                                      ; preds = %29
  %lpad.loopexit = landingpad { ptr, i32 }
          cleanup
  br label %32

.loopexit.split-lp:                               ; preds = %28
  %lpad.loopexit.split-lp = landingpad { ptr, i32 }
          cleanup
  br label %32

32:                                               ; preds = %.loopexit.split-lp, %.loopexit10
  %lpad.phi = phi { ptr, i32 } [ %lpad.loopexit, %.loopexit10 ], [ %lpad.loopexit.split-lp, %.loopexit.split-lp ]
  call void @_ZN3dap4json19JsonCppDeserializerD2Ev(ptr noundef nonnull align 8 dereferenceable(17) %6) #21
  resume { ptr, i32 } %lpad.phi

33:                                               ; preds = %29
  call void @llvm.lifetime.end.p0(i64 8, ptr nonnull %3)
  store ptr getelementptr inbounds ({ [13 x ptr] }, ptr @_ZTVN3dap4json19JsonCppDeserializerE, i64 0, i32 0, i64 2), ptr %6, align 8
  %34 = load i8, ptr %22, align 8
  %35 = and i8 %34, 1
  %.not.i = icmp eq i8 %35, 0
  br i1 %.not.i, label %_ZN3dap4json19JsonCppDeserializerD2Ev.exit, label %36

36:                                               ; preds = %33
  %37 = load ptr, ptr %21, align 8
  %38 = icmp eq ptr %37, null
  br i1 %38, label %_ZN3dap4json19JsonCppDeserializerD2Ev.exit, label %39

39:                                               ; preds = %36
  call void @_ZN4Json5ValueD1Ev(ptr noundef nonnull align 8 dereferenceable(40) %37) #21
  call void @_ZdlPv(ptr noundef nonnull %37) #20
  br label %_ZN3dap4json19JsonCppDeserializerD2Ev.exit

_ZN3dap4json19JsonCppDeserializerD2Ev.exit:       ; preds = %33, %36, %39
  br i1 %31, label %40, label %.loopexit

40:                                               ; preds = %_ZN3dap4json19JsonCppDeserializerD2Ev.exit
  call void @_ZN4Json17ValueIteratorBase9incrementEv(ptr noundef nonnull align 8 dereferenceable(9) %4)
  %41 = call noundef zeroext i1 @_ZNK4Json17ValueIteratorBase7isEqualERKS0_(ptr noundef nonnull align 8 dereferenceable(9) %4, ptr noundef nonnull align 8 dereferenceable(9) %5)
  br i1 %41, label %.loopexit, label %25

.loopexit:                                        ; preds = %_ZN3dap4json19JsonCppDeserializerD2Ev.exit, %40, %10, %2
  %.2 = phi i1 [ false, %2 ], [ true, %10 ], [ %31, %40 ], [ %31, %_ZN3dap4json19JsonCppDeserializerD2Ev.exit ]
  ret i1 %.2
}